target datalayout = "e-m:e-p270:32:32-p271:32:32-p272:64:64-i64:64-i128:128-f80:128-n8:16:32:64-S128"
target triple = "x86_64-pc-linux-gnu"

%struct.expert_field = type { i32, i32 }

@hf_gsm_a_lac = hidden global i32 0, align 4
@ei_gsm_a_extraneous_data = internal global %struct.expert_field zeroinitializer, align 4

; Function Attrs: null_pointer_is_valid sspstrong uwtable
define hidden zeroext i16 @de_cn_common_gsm_map_nas_sys_info(ptr noundef %0, ptr noundef %1, ptr noundef %2, i32 noundef %3, i32 noundef %4, ptr noundef %5, i32 noundef %6) #1 {
  %8 = alloca ptr, align 8
  %9 = alloca ptr, align 8
  %10 = alloca ptr, align 8
  %11 = alloca i32, align 4
  %12 = alloca i32, align 4
  %13 = alloca ptr, align 8
  %14 = alloca i32, align 4
  %15 = alloca i32, align 4
  store ptr %0, ptr %8, align 8
  store ptr %1, ptr %9, align 8
  store ptr %2, ptr %10, align 8
  store i32 %3, ptr %11, align 4
  store i32 %4, ptr %12, align 4
  store ptr %5, ptr %13, align 8
  store i32 %6, ptr %14, align 4
  call void @llvm.lifetime.start.p0(i64 4, ptr %15) #9
  %16 = load i32, ptr %11, align 4
  store i32 %16, ptr %15, align 4
  %17 = load ptr, ptr %9, align 8
  %18 = load i32, ptr @hf_gsm_a_lac, align 4
  %19 = load ptr, ptr %8, align 8
  %20 = load i32, ptr %15, align 4
  %21 = call ptr @proto_tree_add_item(ptr noundef %17, i32 noundef %18, ptr noundef %19, i32 noundef %20, i32 noundef 2, i32 noundef 0)
  %22 = load i32, ptr %15, align 4
  %23 = add i32 %22, 2
  store i32 %23, ptr %15, align 4
  %24 = load i32, ptr %12, align 4
  %25 = load i32, ptr %15, align 4
  %26 = load i32, ptr %11, align 4
  %27 = sub i32 %25, %26
  %28 = icmp ugt i32 %24, %27
  br i1 %28, label %29, label %47

29:                                               ; preds = %7
  %30 = load ptr, ptr %9, align 8
  %31 = load ptr, ptr %10, align 8
  %32 = load ptr, ptr %8, align 8
  %33 = load i32, ptr %15, align 4
  %34 = load i32, ptr %12, align 4
  %35 = load i32, ptr %15, align 4
  %36 = load i32, ptr %11, align 4
  %37 = sub i32 %35, %36
  %38 = sub i32 %34, %37
  %39 = call ptr @proto_tree_add_expert(ptr noundef %30, ptr noundef %31, ptr noundef @ei_gsm_a_extraneous_data, ptr noundef %32, i32 noundef %33, i32 noundef %38)
  %40 = load i32, ptr %12, align 4
  %41 = load i32, ptr %15, align 4
  %42 = load i32, ptr %11, align 4
  %43 = sub i32 %41, %42
  %44 = sub i32 %40, %43
  %45 = load i32, ptr %15, align 4
  %46 = add i32 %45, %44
  store i32 %46, ptr %15, align 4
  br label %47

47:                                               ; preds = %29, %7
  %48 = load i32, ptr %15, align 4
  %49 = load i32, ptr %11, align 4
  %50 = sub i32 %48, %49
  %51 = trunc i32 %50 to i16
  call void @llvm.lifetime.end.p0(i64 4, ptr %15) #9
  ret i16 %51
}